; ModuleID = '46/2067.c'
source_filename = "46/2067.c"
target datalayout = "e-m:e-p270:32:32-p271:32:32-p272:64:64-i64:64-f80:128-n8:16:32:64-S128"
target triple = "x86_64-pc-linux-gnu"

@.str = private unnamed_addr constant [6 x i8] c"%d %d\00", align 1
@.str.1 = private unnamed_addr constant [3 x i8] c"%d\00", align 1
@.str.2 = private unnamed_addr constant [4 x i8] c"%d\0A\00", align 1

; Function Attrs: noinline nounwind uwtable
define dso_local i32 @main() #0 {
  %1 = alloca i32, align 4
  %2 = alloca i32, align 4
  %3 = alloca i32, align 4
  %4 = alloca [100 x [100 x i32]], align 16
  %5 = alloca i32, align 4
  %6 = alloca i32, align 4
  %7 = alloca i32, align 4
  %8 = alloca i32, align 4
  %9 = alloca i32, align 4
  %10 = alloca i32, align 4
  %11 = alloca i32, align 4
  %12 = alloca [100 x [100 x i32]], align 16
  %13 = alloca i32, align 4
  %14 = alloca i32, align 4
  %15 = alloca i32, align 4
  %16 = alloca i32, align 4
  %17 = alloca i32, align 4
  store i32 0, i32* %1, align 4
  store i32 0, i32* %10, align 4
  store i32 0, i32* %13, align 4
  %18 = call i32 (i8*, ...) @__isoc99_scanf(i8* getelementptr inbounds ([6 x i8], [6 x i8]* @.str, i64 0, i64 0), i32* %2, i32* %3)
  store i32 0, i32* %14, align 4
  br label %19

19:                                               ; preds = %41, %0
  %20 = load i32, i32* %14, align 4
  %21 = load i32, i32* %2, align 4
  %22 = add nsw i32 %21, 1
  %23 = icmp sle i32 %20, %22
  br i1 %23, label %24, label %44

24:                                               ; preds = %19
  store i32 0, i32* %15, align 4
  br label %25

25:                                               ; preds = %37, %24
  %26 = load i32, i32* %15, align 4
  %27 = load i32, i32* %3, align 4
  %28 = add nsw i32 %27, 1
  %29 = icmp sle i32 %26, %28
  br i1 %29, label %30, label %40

30:                                               ; preds = %25
  %31 = load i32, i32* %15, align 4
  %32 = sext i32 %31 to i64
  %33 = getelementptr inbounds [100 x [100 x i32]], [100 x [100 x i32]]* %12, i64 0, i64 %32
  %34 = load i32, i32* %14, align 4
  %35 = sext i32 %34 to i64
  %36 = getelementptr inbounds [100 x i32], [100 x i32]* %33, i64 0, i64 %35
  store i32 1, i32* %36, align 4
  br label %37

37:                                               ; preds = %30
  %38 = load i32, i32* %15, align 4
  %39 = add nsw i32 %38, 1
  store i32 %39, i32* %15, align 4
  br label %25

40:                                               ; preds = %25
  br label %41

41:                                               ; preds = %40
  %42 = load i32, i32* %14, align 4
  %43 = add nsw i32 %42, 1
  store i32 %43, i32* %14, align 4
  br label %19

44:                                               ; preds = %19
  store i32 1, i32* %16, align 4
  br label %45

45:                                               ; preds = %72, %44
  %46 = load i32, i32* %16, align 4
  %47 = load i32, i32* %2, align 4
  %48 = icmp sle i32 %46, %47
  br i1 %48, label %49, label %75

49:                                               ; preds = %45
  store i32 1, i32* %17, align 4
  br label %50

50:                                               ; preds = %68, %49
  %51 = load i32, i32* %17, align 4
  %52 = load i32, i32* %3, align 4
  %53 = icmp sle i32 %51, %52
  br i1 %53, label %54, label %71

54:                                               ; preds = %50
  %55 = load i32, i32* %17, align 4
  %56 = sext i32 %55 to i64
  %57 = getelementptr inbounds [100 x [100 x i32]], [100 x [100 x i32]]* %4, i64 0, i64 %56
  %58 = load i32, i32* %16, align 4
  %59 = sext i32 %58 to i64
  %60 = getelementptr inbounds [100 x i32], [100 x i32]* %57, i64 0, i64 %59
  %61 = call i32 (i8*, ...) @__isoc99_scanf(i8* getelementptr inbounds ([3 x i8], [3 x i8]* @.str.1, i64 0, i64 0), i32* %60)
  %62 = load i32, i32* %17, align 4
  %63 = sext i32 %62 to i64
  %64 = getelementptr inbounds [100 x [100 x i32]], [100 x [100 x i32]]* %12, i64 0, i64 %63
  %65 = load i32, i32* %16, align 4
  %66 = sext i32 %65 to i64
  %67 = getelementptr inbounds [100 x i32], [100 x i32]* %64, i64 0, i64 %66
  store i32 0, i32* %67, align 4
  br label %68

68:                                               ; preds = %54
  %69 = load i32, i32* %17, align 4
  %70 = add nsw i32 %69, 1
  store i32 %70, i32* %17, align 4
  br label %50

71:                                               ; preds = %50
  br label %72

72:                                               ; preds = %71
  %73 = load i32, i32* %16, align 4
  %74 = add nsw i32 %73, 1
  store i32 %74, i32* %16, align 4
  br label %45

75:                                               ; preds = %45
  store i32 1, i32* %5, align 4
  store i32 1, i32* %6, align 4
  br label %76

76:                                               ; preds = %168, %75
  %77 = load i32, i32* %10, align 4
  %78 = load i32, i32* %2, align 4
  %79 = load i32, i32* %3, align 4
  %80 = mul nsw i32 %78, %79
  %81 = icmp slt i32 %77, %80
  br i1 %81, label %82, label %169

82:                                               ; preds = %76
  %83 = load i32, i32* %5, align 4
  %84 = sext i32 %83 to i64
  %85 = getelementptr inbounds [100 x [100 x i32]], [100 x [100 x i32]]* %4, i64 0, i64 %84
  %86 = load i32, i32* %6, align 4
  %87 = sext i32 %86 to i64
  %88 = getelementptr inbounds [100 x i32], [100 x i32]* %85, i64 0, i64 %87
  %89 = load i32, i32* %88, align 4
  %90 = call i32 (i8*, ...) @printf(i8* getelementptr inbounds ([4 x i8], [4 x i8]* @.str.2, i64 0, i64 0), i32 %89)
  %91 = load i32, i32* %5, align 4
  %92 = sext i32 %91 to i64
  %93 = getelementptr inbounds [100 x [100 x i32]], [100 x [100 x i32]]* %12, i64 0, i64 %92
  %94 = load i32, i32* %6, align 4
  %95 = sext i32 %94 to i64
  %96 = getelementptr inbounds [100 x i32], [100 x i32]* %93, i64 0, i64 %95
  store i32 1, i32* %96, align 4
  %97 = load i32, i32* %10, align 4
  %98 = add nsw i32 %97, 1
  store i32 %98, i32* %10, align 4
  %99 = load i32, i32* %13, align 4
  switch i32 %99, label %168 [
    i32 0, label %100
    i32 1, label %117
    i32 2, label %134
    i32 3, label %151
  ]

100:                                              ; preds = %82
  %101 = load i32, i32* %5, align 4
  %102 = add nsw i32 %101, 1
  %103 = sext i32 %102 to i64
  %104 = getelementptr inbounds [100 x [100 x i32]], [100 x [100 x i32]]* %12, i64 0, i64 %103
  %105 = load i32, i32* %6, align 4
  %106 = sext i32 %105 to i64
  %107 = getelementptr inbounds [100 x i32], [100 x i32]* %104, i64 0, i64 %106
  %108 = load i32, i32* %107, align 4
  %109 = icmp eq i32 %108, 1
  br i1 %109, label %110, label %113

110:                                              ; preds = %100
  store i32 1, i32* %13, align 4
  %111 = load i32, i32* %6, align 4
  %112 = add nsw i32 %111, 1
  store i32 %112, i32* %6, align 4
  br label %116

113:                                              ; preds = %100
  %114 = load i32, i32* %5, align 4
  %115 = add nsw i32 %114, 1
  store i32 %115, i32* %5, align 4
  br label %116

116:                                              ; preds = %113, %110
  br label %168

117:                                              ; preds = %82
  %118 = load i32, i32* %5, align 4
  %119 = sext i32 %118 to i64
  %120 = getelementptr inbounds [100 x [100 x i32]], [100 x [100 x i32]]* %12, i64 0, i64 %119
  %121 = load i32, i32* %6, align 4
  %122 = add nsw i32 %121, 1
  %123 = sext i32 %122 to i64
  %124 = getelementptr inbounds [100 x i32], [100 x i32]* %120, i64 0, i64 %123
  %125 = load i32, i32* %124, align 4
  %126 = icmp eq i32 %125, 1
  br i1 %126, label %127, label %130

127:                                              ; preds = %117
  store i32 2, i32* %13, align 4
  %128 = load i32, i32* %5, align 4
  %129 = add nsw i32 %128, -1
  store i32 %129, i32* %5, align 4
  br label %133

130:                                              ; preds = %117
  %131 = load i32, i32* %6, align 4
  %132 = add nsw i32 %131, 1
  store i32 %132, i32* %6, align 4
  br label %133

133:                                              ; preds = %130, %127
  br label %168

134:                                              ; preds = %82
  %135 = load i32, i32* %5, align 4
  %136 = sub nsw i32 %135, 1
  %137 = sext i32 %136 to i64
  %138 = getelementptr inbounds [100 x [100 x i32]], [100 x [100 x i32]]* %12, i64 0, i64 %137
  %139 = load i32, i32* %6, align 4
  %140 = sext i32 %139 to i64
  %141 = getelementptr inbounds [100 x i32], [100 x i32]* %138, i64 0, i64 %140
  %142 = load i32, i32* %141, align 4
  %143 = icmp eq i32 %142, 1
  br i1 %143, label %144, label %147

144:                                              ; preds = %134
  store i32 3, i32* %13, align 4
  %145 = load i32, i32* %6, align 4
  %146 = add nsw i32 %145, -1
  store i32 %146, i32* %6, align 4
  br label %150

147:                                              ; preds = %134
  %148 = load i32, i32* %5, align 4
  %149 = add nsw i32 %148, -1
  store i32 %149, i32* %5, align 4
  br label %150

150:                                              ; preds = %147, %144
  br label %168

151:                                              ; preds = %82
  %152 = load i32, i32* %5, align 4
  %153 = sext i32 %152 to i64
  %154 = getelementptr inbounds [100 x [100 x i32]], [100 x [100 x i32]]* %12, i64 0, i64 %153
  %155 = load i32, i32* %6, align 4
  %156 = sub nsw i32 %155, 1
  %157 = sext i32 %156 to i64
  %158 = getelementptr inbounds [100 x i32], [100 x i32]* %154, i64 0, i64 %157
  %159 = load i32, i32* %158, align 4
  %160 = icmp eq i32 %159, 1
  br i1 %160, label %161, label %164

161:                                              ; preds = %151
  store i32 0, i32* %13, align 4
  %162 = load i32, i32* %5, align 4
  %163 = add nsw i32 %162, 1
  store i32 %163, i32* %5, align 4
  br label %167

164:                                              ; preds = %151
  %165 = load i32, i32* %6, align 4
  %166 = add nsw i32 %165, -1
  store i32 %166, i32* %6, align 4
  br label %167

167:                                              ; preds = %164, %161
  br label %168

168:                                              ; preds = %82, %167, %150, %133, %116
  br label %76

169:                                              ; preds = %76
  ret i32 0
}

declare dso_local i32 @__isoc99_scanf(i8*, ...) #1

declare dso_local i32 @printf(i8*, ...) #1


!llvm.module.flags = !{!0}
!llvm.ident = !{!1}

!0 = !{i32 1, !"wchar_size", i32 4}
!1 = !{!"clang version 10.0.0-4ubuntu1 "}
